target datalayout = "e-m:e-p270:32:32-p271:32:32-p272:64:64-i64:64-i128:128-f80:128-n8:16:32:64-S128"
target triple = "x86_64-pc-linux-gnu"

%struct.CastContext = type { ptr, ptr, ptr, ptr, ptr, i32, i32 }
%struct.Expr_ = type { ptr, %union.SourceSpan, i16, %union.anon.29 }
%union.SourceSpan = type { i64 }
%union.anon.29 = type { %struct.ExprAnySwitch }
%struct.ExprAnySwitch = type { i8, %union.anon.31 }
%union.anon.31 = type { %struct.anon.32 }
%struct.anon.32 = type { ptr, %union.SourceSpan, ptr }
%struct.Type_ = type { i32, ptr, ptr, ptr, %union.anon.85, ptr, ptr, %union.anon.87 }
%union.anon.85 = type { ptr }
%union.anon.87 = type { %struct.TypeFunction }
%struct.TypeFunction = type { ptr, ptr, ptr }
%struct.ExprConst = type { i16, %union.anon.38 }
%union.anon.38 = type { %struct.Int }
%struct.Int = type { %struct.Int128_, i32 }
%struct.Int128_ = type { i64, i64 }

@.str.13 = private unnamed_addr constant [119 x i8] c"Implicitly casting %s to %s is not permitted, but you may do an explicit cast by placing '(%s)' before the expression.\00", align 1
@.str.14 = private unnamed_addr constant [37 x i8] c"It is not possible to cast %s to %s.\00", align 1
@type_uptr = external global ptr, align 8
@.str.19 = private unnamed_addr constant [34 x i8] c"'0x%s' does not fit in a pointer.\00", align 1
@type_iptr = external global ptr, align 8
@.str.20 = private unnamed_addr constant [72 x i8] c"You cannot convert an integer smaller than a pointer size to a pointer.\00", align 1

; Function Attrs: nounwind uwtable
define internal void @report_cast_error(ptr noundef %0, i1 noundef zeroext %1) #0 {
  %3 = alloca ptr, align 8
  %4 = alloca ptr, align 8
  %5 = alloca ptr, align 8
  %6 = alloca ptr, align 8
  %7 = alloca ptr, align 8
  %8 = alloca ptr, align 8
  %9 = alloca ptr, align 8
  %10 = alloca i8, align 1
  %11 = alloca ptr, align 8
  %12 = alloca ptr, align 8
  store ptr %0, ptr %9, align 8
  %13 = zext i1 %1 to i8
  store i8 %13, ptr %10, align 1
  %14 = load ptr, ptr %9, align 8
  %15 = getelementptr inbounds %struct.CastContext, ptr %14, i32 0, i32 1
  %16 = load ptr, ptr %15, align 8
  store ptr %16, ptr %11, align 8
  %17 = load ptr, ptr %9, align 8
  %18 = getelementptr inbounds %struct.CastContext, ptr %17, i32 0, i32 3
  %19 = load ptr, ptr %18, align 8
  store ptr %19, ptr %12, align 8
  %20 = load i8, ptr %10, align 1
  %21 = trunc i8 %20 to i1
  br i1 %21, label %22, label %65

22:                                               ; preds = %2
  %23 = load ptr, ptr %11, align 8
  %24 = getelementptr inbounds %struct.Expr_, ptr %23, i32 0, i32 1
  %25 = load ptr, ptr %11, align 8
  %26 = getelementptr inbounds %struct.Expr_, ptr %25, i32 0, i32 0
  %27 = load ptr, ptr %26, align 8
  store ptr %27, ptr %4, align 8
  %28 = load ptr, ptr %4, align 8
  %29 = icmp ne ptr %28, null
  br i1 %29, label %31, label %30

30:                                               ; preds = %22
  store ptr null, ptr %3, align 8
  br label %41

31:                                               ; preds = %22
  %32 = load ptr, ptr %4, align 8
  %33 = load i32, ptr %32, align 8
  %34 = icmp eq i32 %33, 40
  br i1 %34, label %35, label %39

35:                                               ; preds = %31
  %36 = load ptr, ptr %4, align 8
  %37 = getelementptr inbounds %struct.Type_, ptr %36, i32 0, i32 7
  %38 = load ptr, ptr %37, align 8
  store ptr %38, ptr %3, align 8
  br label %41

39:                                               ; preds = %31
  %40 = load ptr, ptr %4, align 8
  store ptr %40, ptr %3, align 8
  br label %41

41:                                               ; preds = %39, %35, %30
  %42 = load ptr, ptr %3, align 8
  %43 = call ptr @type_quoted_error_string(ptr noundef %42)
  %44 = load ptr, ptr %12, align 8
  %45 = call ptr @type_quoted_error_string(ptr noundef %44)
  %46 = load ptr, ptr %12, align 8
  store ptr %46, ptr %6, align 8
  %47 = load ptr, ptr %6, align 8
  %48 = icmp ne ptr %47, null
  br i1 %48, label %50, label %49

49:                                               ; preds = %41
  store ptr null, ptr %5, align 8
  br label %60

50:                                               ; preds = %41
  %51 = load ptr, ptr %6, align 8
  %52 = load i32, ptr %51, align 8
  %53 = icmp eq i32 %52, 40
  br i1 %53, label %54, label %58

54:                                               ; preds = %50
  %55 = load ptr, ptr %6, align 8
  %56 = getelementptr inbounds %struct.Type_, ptr %55, i32 0, i32 7
  %57 = load ptr, ptr %56, align 8
  store ptr %57, ptr %5, align 8
  br label %60

58:                                               ; preds = %50
  %59 = load ptr, ptr %6, align 8
  store ptr %59, ptr %5, align 8
  br label %60

60:                                               ; preds = %58, %54, %49
  %61 = load ptr, ptr %5, align 8
  %62 = call ptr @type_to_error_string(ptr noundef %61)
  %63 = getelementptr inbounds %union.SourceSpan, ptr %24, i32 0, i32 0
  %64 = load i64, ptr %63, align 8
  call void (i64, ptr, ...) @sema_error_at(i64 %64, ptr noundef @.str.13, ptr noundef %43, ptr noundef %45, ptr noundef %62)
  br label %91

65:                                               ; preds = %2
  %66 = load ptr, ptr %11, align 8
  %67 = getelementptr inbounds %struct.Expr_, ptr %66, i32 0, i32 1
  %68 = load ptr, ptr %11, align 8
  %69 = getelementptr inbounds %struct.Expr_, ptr %68, i32 0, i32 0
  %70 = load ptr, ptr %69, align 8
  store ptr %70, ptr %8, align 8
  %71 = load ptr, ptr %8, align 8
  %72 = icmp ne ptr %71, null
  br i1 %72, label %74, label %73

73:                                               ; preds = %65
  store ptr null, ptr %7, align 8
  br label %84

74:                                               ; preds = %65
  %75 = load ptr, ptr %8, align 8
  %76 = load i32, ptr %75, align 8
  %77 = icmp eq i32 %76, 40
  br i1 %77, label %78, label %82

78:                                               ; preds = %74
  %79 = load ptr, ptr %8, align 8
  %80 = getelementptr inbounds %struct.Type_, ptr %79, i32 0, i32 7
  %81 = load ptr, ptr %80, align 8
  store ptr %81, ptr %7, align 8
  br label %84

82:                                               ; preds = %74
  %83 = load ptr, ptr %8, align 8
  store ptr %83, ptr %7, align 8
  br label %84

84:                                               ; preds = %82, %78, %73
  %85 = load ptr, ptr %7, align 8
  %86 = call ptr @type_quoted_error_string(ptr noundef %85)
  %87 = load ptr, ptr %12, align 8
  %88 = call ptr @type_quoted_error_string(ptr noundef %87)
  %89 = getelementptr inbounds %union.SourceSpan, ptr %67, i32 0, i32 0
  %90 = load i64, ptr %89, align 8
  call void (i64, ptr, ...) @sema_error_at(i64 %90, ptr noundef @.str.14, ptr noundef %86, ptr noundef %88)
  br label %91

91:                                               ; preds = %84, %60
  ret void
}

; Function Attrs: nounwind uwtable
define internal zeroext i1 @rule_int_to_ptr(ptr noundef %0, i1 noundef zeroext %1, i1 noundef zeroext %2) #0 {
  %4 = alloca i1, align 1
  %5 = alloca ptr, align 8
  %6 = alloca i8, align 1
  %7 = alloca i8, align 1
  %8 = alloca i1, align 1
  %9 = alloca ptr, align 8
  %10 = alloca i8, align 1
  %11 = alloca i8, align 1
  %12 = alloca ptr, align 8
  %13 = alloca i1, align 1
  %14 = alloca ptr, align 8
  %15 = alloca i8, align 1
  %16 = alloca i8, align 1
  %17 = alloca ptr, align 8
  store ptr %0, ptr %14, align 8
  %18 = zext i1 %1 to i8
  store i8 %18, ptr %15, align 1
  %19 = zext i1 %2 to i8
  store i8 %19, ptr %16, align 1
  %20 = load ptr, ptr %14, align 8
  %21 = getelementptr inbounds %struct.CastContext, ptr %20, i32 0, i32 1
  %22 = load ptr, ptr %21, align 8
  store ptr %22, ptr %17, align 8
  %23 = load ptr, ptr %17, align 8
  store ptr %23, ptr %12, align 8
  %24 = load ptr, ptr %12, align 8
  %25 = getelementptr inbounds %struct.Expr_, ptr %24, i32 0, i32 2
  %26 = load i16, ptr %25, align 8
  %27 = and i16 %26, 255
  %28 = zext i16 %27 to i32
  %29 = icmp eq i32 %28, 14
  br i1 %29, label %30, label %71

30:                                               ; preds = %3
  %31 = load i8, ptr %15, align 1
  %32 = trunc i8 %31 to i1
  br i1 %32, label %47, label %33

33:                                               ; preds = %30
  %34 = load ptr, ptr %14, align 8
  %35 = load i8, ptr %16, align 1
  %36 = trunc i8 %35 to i1
  store ptr %34, ptr %5, align 8
  store i8 1, ptr %6, align 1
  %37 = zext i1 %36 to i8
  store i8 %37, ptr %7, align 1
  %38 = load i8, ptr %7, align 1
  %39 = trunc i8 %38 to i1
  br i1 %39, label %40, label %41

40:                                               ; preds = %33
  store i1 false, ptr %4, align 1
  br label %45

41:                                               ; preds = %33
  %42 = load ptr, ptr %5, align 8
  %43 = load i8, ptr %6, align 1
  %44 = trunc i8 %43 to i1
  call void @report_cast_error(ptr noundef %42, i1 noundef zeroext %44)
  store i1 false, ptr %4, align 1
  br label %45

45:                                               ; preds = %41, %40
  %46 = load i1, ptr %4, align 1
  store i1 %46, ptr %13, align 1
  br label %108

47:                                               ; preds = %30
  %48 = load ptr, ptr %17, align 8
  %49 = getelementptr inbounds %struct.Expr_, ptr %48, i32 0, i32 3
  %50 = getelementptr inbounds %struct.ExprConst, ptr %49, i32 0, i32 1
  %51 = load ptr, ptr @type_uptr, align 8
  %52 = getelementptr inbounds %struct.Type_, ptr %51, i32 0, i32 1
  %53 = load ptr, ptr %52, align 8
  %54 = getelementptr inbounds %struct.Type_, ptr %53, i32 0, i32 0
  %55 = load i32, ptr %54, align 8
  %56 = call zeroext i1 @int_fits(ptr noundef byval(%struct.Int) align 8 %50, i32 noundef %55)
  br i1 %56, label %70, label %57

57:                                               ; preds = %47
  %58 = load i8, ptr %16, align 1
  %59 = trunc i8 %58 to i1
  br i1 %59, label %60, label %61

60:                                               ; preds = %57
  store i1 false, ptr %13, align 1
  br label %108

61:                                               ; preds = %57
  %62 = load ptr, ptr %17, align 8
  %63 = getelementptr inbounds %struct.Expr_, ptr %62, i32 0, i32 1
  %64 = load ptr, ptr %17, align 8
  %65 = getelementptr inbounds %struct.Expr_, ptr %64, i32 0, i32 3
  %66 = getelementptr inbounds %struct.ExprConst, ptr %65, i32 0, i32 1
  %67 = call ptr @int_to_str(ptr noundef byval(%struct.Int) align 8 %66, i32 noundef 16)
  %68 = getelementptr inbounds %union.SourceSpan, ptr %63, i32 0, i32 0
  %69 = load i64, ptr %68, align 8
  call void (i64, ptr, ...) @sema_error_at(i64 %69, ptr noundef @.str.19, ptr noundef %67)
  store i1 false, ptr %13, align 1
  br label %108

70:                                               ; preds = %47
  store i1 true, ptr %13, align 1
  br label %108

71:                                               ; preds = %3
  %72 = load ptr, ptr %14, align 8
  %73 = getelementptr inbounds %struct.CastContext, ptr %72, i32 0, i32 2
  %74 = load ptr, ptr %73, align 8
  %75 = call i32 @type_size(ptr noundef %74)
  %76 = load ptr, ptr @type_iptr, align 8
  %77 = call i32 @type_size(ptr noundef %76)
  %78 = icmp ult i32 %75, %77
  br i1 %78, label %79, label %90

79:                                               ; preds = %71
  %80 = load i8, ptr %16, align 1
  %81 = trunc i8 %80 to i1
  br i1 %81, label %82, label %83

82:                                               ; preds = %79
  store i1 false, ptr %13, align 1
  br label %108

83:                                               ; preds = %79
  br label %84

84:                                               ; preds = %83
  %85 = load ptr, ptr %17, align 8
  %86 = getelementptr inbounds %struct.Expr_, ptr %85, i32 0, i32 1
  %87 = getelementptr inbounds %union.SourceSpan, ptr %86, i32 0, i32 0
  %88 = load i64, ptr %87, align 8
  call void (i64, ptr, ...) @sema_error_at(i64 %88, ptr noundef @.str.20)
  store i1 false, ptr %13, align 1
  br label %108

89:                                               ; No predecessors!
  br label %90

90:                                               ; preds = %89, %71
  %91 = load i8, ptr %15, align 1
  %92 = trunc i8 %91 to i1
  br i1 %92, label %107, label %93

93:                                               ; preds = %90
  %94 = load ptr, ptr %14, align 8
  %95 = load i8, ptr %16, align 1
  %96 = trunc i8 %95 to i1
  store ptr %94, ptr %9, align 8
  store i8 1, ptr %10, align 1
  %97 = zext i1 %96 to i8
  store i8 %97, ptr %11, align 1
  %98 = load i8, ptr %11, align 1
  %99 = trunc i8 %98 to i1
  br i1 %99, label %100, label %101

100:                                              ; preds = %93
  store i1 false, ptr %8, align 1
  br label %105

101:                                              ; preds = %93
  %102 = load ptr, ptr %9, align 8
  %103 = load i8, ptr %10, align 1
  %104 = trunc i8 %103 to i1
  call void @report_cast_error(ptr noundef %102, i1 noundef zeroext %104)
  store i1 false, ptr %8, align 1
  br label %105

105:                                              ; preds = %101, %100
  %106 = load i1, ptr %8, align 1
  store i1 %106, ptr %13, align 1
  br label %108

107:                                              ; preds = %90
  store i1 true, ptr %13, align 1
  br label %108

108:                                              ; preds = %107, %105, %84, %82, %70, %61, %60, %45
  %109 = load i1, ptr %13, align 1
  ret i1 %109
}