; Function Attrs: nounwind uwtable
define internal zeroext i1 @rule_int_to_ptr(ptr nocapture noundef readonly %0, i1 noundef zeroext %1, i1 noundef zeroext %2) #0 {
  %4 = getelementptr inbounds i8, ptr %0, i64 8
  %5 = load ptr, ptr %4, align 8
  %6 = getelementptr inbounds i8, ptr %5, i64 16
  %7 = load i16, ptr %6, align 8
  %8 = and i16 %7, 255
  %9 = icmp eq i16 %8, 14
  br i1 %9, label %10, label %44

10:                                               ; preds = %3
  br i1 %1, label %33, label %11

11:                                               ; preds = %10
  br i1 %2, label %77, label %12

12:                                               ; preds = %11
  %13 = getelementptr i8, ptr %0, i64 24
  %.val28 = load ptr, ptr %13, align 8
  %14 = getelementptr inbounds i8, ptr %5, i64 8
  %15 = load ptr, ptr %5, align 8
  %.not29.i = icmp eq ptr %15, null
  br i1 %.not29.i, label %22, label %16

16:                                               ; preds = %12
  %17 = load i32, ptr %15, align 8
  %18 = icmp eq i32 %17, 40
  br i1 %18, label %19, label %22

19:                                               ; preds = %16
  %20 = getelementptr inbounds i8, ptr %15, i64 56
  %21 = load ptr, ptr %20, align 8
  br label %22

22:                                               ; preds = %19, %16, %12
  %.0.i = phi ptr [ %21, %19 ], [ null, %12 ], [ %15, %16 ]
  %23 = tail call ptr @type_quoted_error_string(ptr noundef %.0.i) #10
  %24 = tail call ptr @type_quoted_error_string(ptr noundef %.val28) #10
  %.not30.i = icmp eq ptr %.val28, null
  br i1 %.not30.i, label %report_cast_error.exit, label %25

25:                                               ; preds = %22
  %26 = load i32, ptr %.val28, align 8
  %27 = icmp eq i32 %26, 40
  br i1 %27, label %28, label %report_cast_error.exit

28:                                               ; preds = %25
  %29 = getelementptr inbounds i8, ptr %.val28, i64 56
  %30 = load ptr, ptr %29, align 8
  br label %report_cast_error.exit

report_cast_error.exit:                           ; preds = %22, %25, %28
  %.024.i = phi ptr [ %30, %28 ], [ null, %22 ], [ %.val28, %25 ]
  %31 = tail call ptr @type_to_error_string(ptr noundef %.024.i) #10
  %32 = load i64, ptr %14, align 8
  tail call void (i64, ptr, ...) @sema_error_at(i64 %32, ptr noundef nonnull @.str.13, ptr noundef %23, ptr noundef %24, ptr noundef %31) #10
  br label %77

33:                                               ; preds = %10
  %34 = getelementptr inbounds i8, ptr %5, i64 32
  %35 = load ptr, ptr @type_uptr, align 8
  %36 = getelementptr inbounds i8, ptr %35, i64 8
  %37 = load ptr, ptr %36, align 8
  %38 = load i32, ptr %37, align 8
  %39 = tail call zeroext i1 @int_fits(ptr noundef nonnull byval(%struct.Int) align 8 %34, i32 noundef %38) #10
  %brmerge = or i1 %39, %2
  br i1 %brmerge, label %77, label %40

40:                                               ; preds = %33
  %41 = getelementptr inbounds i8, ptr %5, i64 8
  %42 = tail call ptr @int_to_str(ptr noundef nonnull byval(%struct.Int) align 8 %34, i32 noundef 16) #10
  %43 = load i64, ptr %41, align 8
  tail call void (i64, ptr, ...) @sema_error_at(i64 %43, ptr noundef nonnull @.str.19, ptr noundef %42) #10
  br label %77

44:                                               ; preds = %3
  %45 = getelementptr inbounds i8, ptr %0, i64 16
  %46 = load ptr, ptr %45, align 8
  %47 = tail call i32 @type_size(ptr noundef %46) #10
  %48 = load ptr, ptr @type_iptr, align 8
  %49 = tail call i32 @type_size(ptr noundef %48) #10
  %50 = icmp ult i32 %47, %49
  br i1 %50, label %51, label %55

51:                                               ; preds = %44
  br i1 %2, label %77, label %52

52:                                               ; preds = %51
  %53 = getelementptr inbounds i8, ptr %5, i64 8
  %54 = load i64, ptr %53, align 8
  tail call void (i64, ptr, ...) @sema_error_at(i64 %54, ptr noundef nonnull @.str.20) #10
  br label %77

55:                                               ; preds = %44
  %brmerge26 = or i1 %1, %2
  br i1 %brmerge26, label %77, label %56

56:                                               ; preds = %55
  %.val29 = load ptr, ptr %4, align 8
  %57 = getelementptr i8, ptr %0, i64 24
  %.val30 = load ptr, ptr %57, align 8
  %58 = getelementptr inbounds i8, ptr %.val29, i64 8
  %59 = load ptr, ptr %.val29, align 8
  %.not29.i31 = icmp eq ptr %59, null
  br i1 %.not29.i31, label %66, label %60

60:                                               ; preds = %56
  %61 = load i32, ptr %59, align 8
  %62 = icmp eq i32 %61, 40
  br i1 %62, label %63, label %66

63:                                               ; preds = %60
  %64 = getelementptr inbounds i8, ptr %59, i64 56
  %65 = load ptr, ptr %64, align 8
  br label %66

66:                                               ; preds = %63, %60, %56
  %.0.i32 = phi ptr [ %65, %63 ], [ null, %56 ], [ %59, %60 ]
  %67 = tail call ptr @type_quoted_error_string(ptr noundef %.0.i32) #10
  %68 = tail call ptr @type_quoted_error_string(ptr noundef %.val30) #10
  %.not30.i33 = icmp eq ptr %.val30, null
  br i1 %.not30.i33, label %report_cast_error.exit35, label %69

69:                                               ; preds = %66
  %70 = load i32, ptr %.val30, align 8
  %71 = icmp eq i32 %70, 40
  br i1 %71, label %72, label %report_cast_error.exit35

72:                                               ; preds = %69
  %73 = getelementptr inbounds i8, ptr %.val30, i64 56
  %74 = load ptr, ptr %73, align 8
  br label %report_cast_error.exit35

report_cast_error.exit35:                         ; preds = %66, %69, %72
  %.024.i34 = phi ptr [ %74, %72 ], [ null, %66 ], [ %.val30, %69 ]
  %75 = tail call ptr @type_to_error_string(ptr noundef %.024.i34) #10
  %76 = load i64, ptr %58, align 8
  tail call void (i64, ptr, ...) @sema_error_at(i64 %76, ptr noundef nonnull @.str.13, ptr noundef %67, ptr noundef %68, ptr noundef %75) #10
  br label %77

77:                                               ; preds = %55, %33, %report_cast_error.exit35, %51, %report_cast_error.exit, %11, %52, %40
  %.025 = phi i1 [ false, %40 ], [ false, %52 ], [ false, %11 ], [ false, %report_cast_error.exit ], [ %39, %33 ], [ false, %51 ], [ false, %report_cast_error.exit35 ], [ %1, %55 ]
  ret i1 %.025
}